; Function Attrs: mustprogress nofree norecurse nosync nounwind willreturn memory(read, inaccessiblemem: none) uwtable
define noundef zeroext i1 @_ZNK32pxrInternal_v0_24__pxrReserved__7GfVec4heqERKNS_7GfVec4dE(ptr nocapture noundef nonnull readonly align 2 dereferenceable(8) %0, ptr nocapture noundef nonnull readonly align 8 dereferenceable(32) %1) local_unnamed_addr #2 align 2 {
  %3 = load i16, ptr %0, align 2
  %4 = zext i16 %3 to i64
  %5 = getelementptr inbounds [65536 x %"union.pxrInternal_v0_24__pxrReserved__::pxr_half::half::uif"], ptr @_ZN32pxrInternal_v0_24__pxrReserved__8pxr_half4half8_toFloatE, i64 0, i64 %4
  %6 = load float, ptr %5, align 4
  %7 = fpext float %6 to double
  %8 = load double, ptr %1, align 8
  %9 = fcmp oeq double %8, %7
  br i1 %9, label %10, label %40

10:                                               ; preds = %2
  %11 = getelementptr inbounds i8, ptr %0, i64 2
  %12 = load i16, ptr %11, align 2
  %13 = zext i16 %12 to i64
  %14 = getelementptr inbounds [65536 x %"union.pxrInternal_v0_24__pxrReserved__::pxr_half::half::uif"], ptr @_ZN32pxrInternal_v0_24__pxrReserved__8pxr_half4half8_toFloatE, i64 0, i64 %13
  %15 = load float, ptr %14, align 4
  %16 = fpext float %15 to double
  %17 = getelementptr inbounds i8, ptr %1, i64 8
  %18 = load double, ptr %17, align 8
  %19 = fcmp oeq double %18, %16
  br i1 %19, label %20, label %40

20:                                               ; preds = %10
  %21 = getelementptr inbounds i8, ptr %0, i64 4
  %22 = load i16, ptr %21, align 2
  %23 = zext i16 %22 to i64
  %24 = getelementptr inbounds [65536 x %"union.pxrInternal_v0_24__pxrReserved__::pxr_half::half::uif"], ptr @_ZN32pxrInternal_v0_24__pxrReserved__8pxr_half4half8_toFloatE, i64 0, i64 %23
  %25 = load float, ptr %24, align 4
  %26 = fpext float %25 to double
  %27 = getelementptr inbounds i8, ptr %1, i64 16
  %28 = load double, ptr %27, align 8
  %29 = fcmp oeq double %28, %26
  br i1 %29, label %30, label %40

30:                                               ; preds = %20
  %31 = getelementptr inbounds i8, ptr %0, i64 6
  %32 = load i16, ptr %31, align 2
  %33 = zext i16 %32 to i64
  %34 = getelementptr inbounds [65536 x %"union.pxrInternal_v0_24__pxrReserved__::pxr_half::half::uif"], ptr @_ZN32pxrInternal_v0_24__pxrReserved__8pxr_half4half8_toFloatE, i64 0, i64 %33
  %35 = load float, ptr %34, align 4
  %36 = fpext float %35 to double
  %37 = getelementptr inbounds i8, ptr %1, i64 24
  %38 = load double, ptr %37, align 8
  %39 = fcmp oeq double %38, %36
  br label %40

40:                                               ; preds = %30, %20, %10, %2
  %41 = phi i1 [ false, %20 ], [ false, %10 ], [ false, %2 ], [ %39, %30 ]
  ret i1 %41
}